target datalayout = "e-m:e-p270:32:32-p271:32:32-p272:64:64-i64:64-i128:128-f80:128-n8:16:32:64-S128"
target triple = "x86_64-pc-linux-gnu"

%struct.VP8EncProba = type { [3 x i8], i8, [4 x [8 x [3 x [11 x i8]]]], [4 x [8 x [3 x [11 x i32]]]], [4 x [8 x [3 x [68 x i16]]]], [4 x [16 x [3 x ptr]]], i32, i32, i32 }

; Function Attrs: nounwind uwtable
define hidden void @VP8WriteProbas(ptr noundef %0, ptr noundef %1) #0 {
  %3 = alloca ptr, align 8
  %4 = alloca ptr, align 8
  %5 = alloca i32, align 4
  %6 = alloca i32, align 4
  %7 = alloca i32, align 4
  %8 = alloca i32, align 4
  %9 = alloca i8, align 1
  %10 = alloca i32, align 4
  store ptr %0, ptr %3, align 8, !tbaa !13
  store ptr %1, ptr %4, align 8, !tbaa !8
  call void @llvm.lifetime.start.p0(i64 4, ptr %5) #5
  call void @llvm.lifetime.start.p0(i64 4, ptr %6) #5
  call void @llvm.lifetime.start.p0(i64 4, ptr %7) #5
  call void @llvm.lifetime.start.p0(i64 4, ptr %8) #5
  store i32 0, ptr %5, align 4, !tbaa !39
  br label %11

11:                                               ; preds = %95, %2
  %12 = load i32, ptr %5, align 4, !tbaa !39
  %13 = icmp slt i32 %12, 4
  br i1 %13, label %14, label %98

14:                                               ; preds = %11
  store i32 0, ptr %6, align 4, !tbaa !39
  br label %15

15:                                               ; preds = %91, %14
  %16 = load i32, ptr %6, align 4, !tbaa !39
  %17 = icmp slt i32 %16, 8
  br i1 %17, label %18, label %94

18:                                               ; preds = %15
  store i32 0, ptr %7, align 4, !tbaa !39
  br label %19

19:                                               ; preds = %87, %18
  %20 = load i32, ptr %7, align 4, !tbaa !39
  %21 = icmp slt i32 %20, 3
  br i1 %21, label %22, label %90

22:                                               ; preds = %19
  store i32 0, ptr %8, align 4, !tbaa !39
  br label %23

23:                                               ; preds = %83, %22
  %24 = load i32, ptr %8, align 4, !tbaa !39
  %25 = icmp slt i32 %24, 11
  br i1 %25, label %26, label %86

26:                                               ; preds = %23
  call void @llvm.lifetime.start.p0(i64 1, ptr %9) #5
  %27 = load ptr, ptr %4, align 8, !tbaa !8
  %28 = getelementptr inbounds nuw %struct.VP8EncProba, ptr %27, i32 0, i32 2
  %29 = load i32, ptr %5, align 4, !tbaa !39
  %30 = sext i32 %29 to i64
  %31 = getelementptr inbounds [4 x [8 x [3 x [11 x i8]]]], ptr %28, i64 0, i64 %30
  %32 = load i32, ptr %6, align 4, !tbaa !39
  %33 = sext i32 %32 to i64
  %34 = getelementptr inbounds [8 x [3 x [11 x i8]]], ptr %31, i64 0, i64 %33
  %35 = load i32, ptr %7, align 4, !tbaa !39
  %36 = sext i32 %35 to i64
  %37 = getelementptr inbounds [3 x [11 x i8]], ptr %34, i64 0, i64 %36
  %38 = load i32, ptr %8, align 4, !tbaa !39
  %39 = sext i32 %38 to i64
  %40 = getelementptr inbounds [11 x i8], ptr %37, i64 0, i64 %39
  %41 = load i8, ptr %40, align 1, !tbaa !37
  store i8 %41, ptr %9, align 1, !tbaa !37
  call void @llvm.lifetime.start.p0(i64 4, ptr %10) #5
  %42 = load i8, ptr %9, align 1, !tbaa !37
  %43 = zext i8 %42 to i32
  %44 = load i32, ptr %5, align 4, !tbaa !39
  %45 = sext i32 %44 to i64
  %46 = getelementptr inbounds [4 x [8 x [3 x [11 x i8]]]], ptr @VP8CoeffsProba0, i64 0, i64 %45
  %47 = load i32, ptr %6, align 4, !tbaa !39
  %48 = sext i32 %47 to i64
  %49 = getelementptr inbounds [8 x [3 x [11 x i8]]], ptr %46, i64 0, i64 %48
  %50 = load i32, ptr %7, align 4, !tbaa !39
  %51 = sext i32 %50 to i64
  %52 = getelementptr inbounds [3 x [11 x i8]], ptr %49, i64 0, i64 %51
  %53 = load i32, ptr %8, align 4, !tbaa !39
  %54 = sext i32 %53 to i64
  %55 = getelementptr inbounds [11 x i8], ptr %52, i64 0, i64 %54
  %56 = load i8, ptr %55, align 1, !tbaa !37
  %57 = zext i8 %56 to i32
  %58 = icmp ne i32 %43, %57
  %59 = zext i1 %58 to i32
  store i32 %59, ptr %10, align 4, !tbaa !39
  %60 = load ptr, ptr %3, align 8, !tbaa !13
  %61 = load i32, ptr %10, align 4, !tbaa !39
  %62 = load i32, ptr %5, align 4, !tbaa !39
  %63 = sext i32 %62 to i64
  %64 = getelementptr inbounds [4 x [8 x [3 x [11 x i8]]]], ptr @VP8CoeffsUpdateProba, i64 0, i64 %63
  %65 = load i32, ptr %6, align 4, !tbaa !39
  %66 = sext i32 %65 to i64
  %67 = getelementptr inbounds [8 x [3 x [11 x i8]]], ptr %64, i64 0, i64 %66
  %68 = load i32, ptr %7, align 4, !tbaa !39
  %69 = sext i32 %68 to i64
  %70 = getelementptr inbounds [3 x [11 x i8]], ptr %67, i64 0, i64 %69
  %71 = load i32, ptr %8, align 4, !tbaa !39
  %72 = sext i32 %71 to i64
  %73 = getelementptr inbounds [11 x i8], ptr %70, i64 0, i64 %72
  %74 = load i8, ptr %73, align 1, !tbaa !37
  %75 = zext i8 %74 to i32
  %76 = call i32 @VP8PutBit(ptr noundef %60, i32 noundef %61, i32 noundef %75)
  %77 = icmp ne i32 %76, 0
  br i1 %77, label %78, label %82

78:                                               ; preds = %26
  %79 = load ptr, ptr %3, align 8, !tbaa !13
  %80 = load i8, ptr %9, align 1, !tbaa !37
  %81 = zext i8 %80 to i32
  call void @VP8PutBits(ptr noundef %79, i32 noundef %81, i32 noundef 8)
  br label %82

82:                                               ; preds = %78, %26
  call void @llvm.lifetime.end.p0(i64 4, ptr %10) #5
  call void @llvm.lifetime.end.p0(i64 1, ptr %9) #5
  br label %83

83:                                               ; preds = %82
  %84 = load i32, ptr %8, align 4, !tbaa !39
  %85 = add nsw i32 %84, 1
  store i32 %85, ptr %8, align 4, !tbaa !39
  br label %23, !llvm.loop !44

86:                                               ; preds = %23
  br label %87

87:                                               ; preds = %86
  %88 = load i32, ptr %7, align 4, !tbaa !39
  %89 = add nsw i32 %88, 1
  store i32 %89, ptr %7, align 4, !tbaa !39
  br label %19, !llvm.loop !45

90:                                               ; preds = %19
  br label %91

91:                                               ; preds = %90
  %92 = load i32, ptr %6, align 4, !tbaa !39
  %93 = add nsw i32 %92, 1
  store i32 %93, ptr %6, align 4, !tbaa !39
  br label %15, !llvm.loop !46

94:                                               ; preds = %15
  br label %95

95:                                               ; preds = %94
  %96 = load i32, ptr %5, align 4, !tbaa !39
  %97 = add nsw i32 %96, 1
  store i32 %97, ptr %5, align 4, !tbaa !39
  br label %11, !llvm.loop !47

98:                                               ; preds = %11
  %99 = load ptr, ptr %3, align 8, !tbaa !13
  %100 = load ptr, ptr %4, align 8, !tbaa !8
  %101 = getelementptr inbounds nuw %struct.VP8EncProba, ptr %100, i32 0, i32 7
  %102 = load i32, ptr %101, align 4, !tbaa !9
  %103 = call i32 @VP8PutBitUniform(ptr noundef %99, i32 noundef %102)
  %104 = icmp ne i32 %103, 0
  br i1 %104, label %105, label %111

105:                                              ; preds = %98
  %106 = load ptr, ptr %3, align 8, !tbaa !13
  %107 = load ptr, ptr %4, align 8, !tbaa !8
  %108 = getelementptr inbounds nuw %struct.VP8EncProba, ptr %107, i32 0, i32 1
  %109 = load i8, ptr %108, align 1, !tbaa !48
  %110 = zext i8 %109 to i32
  call void @VP8PutBits(ptr noundef %106, i32 noundef %110, i32 noundef 8)
  br label %111

111:                                              ; preds = %105, %98
  call void @llvm.lifetime.end.p0(i64 4, ptr %8) #5
  call void @llvm.lifetime.end.p0(i64 4, ptr %7) #5
  call void @llvm.lifetime.end.p0(i64 4, ptr %6) #5
  call void @llvm.lifetime.end.p0(i64 4, ptr %5) #5
  ret void
}