; Function Attrs: nounwind uwtable
define hidden void @VP8WriteProbas(ptr noundef %0, ptr noundef readonly captures(none) %1) local_unnamed_addr #4 {
  %3 = getelementptr inbounds nuw i8, ptr %1, i64 4
  br label %.preheader34

.preheader34:                                     ; preds = %2, %20
  %indvars.iv48 = phi i64 [ 0, %2 ], [ %indvars.iv.next49, %20 ]
  br label %.preheader33

.preheader33:                                     ; preds = %.preheader34, %19
  %indvars.iv44 = phi i64 [ 0, %.preheader34 ], [ %indvars.iv.next45, %19 ]
  br label %.preheader

.preheader:                                       ; preds = %.preheader33, %18
  %indvars.iv40 = phi i64 [ 0, %.preheader33 ], [ %indvars.iv.next41, %18 ]
  br label %4

4:                                                ; preds = %.preheader, %17
  %indvars.iv = phi i64 [ 0, %.preheader ], [ %indvars.iv.next, %17 ]
  %5 = getelementptr inbounds nuw [4 x [8 x [3 x [11 x i8]]]], ptr %3, i64 0, i64 %indvars.iv48, i64 %indvars.iv44, i64 %indvars.iv40, i64 %indvars.iv
  %6 = load i8, ptr %5, align 1, !tbaa !31
  %7 = getelementptr inbounds nuw [4 x [8 x [3 x [11 x i8]]]], ptr @VP8CoeffsProba0, i64 0, i64 %indvars.iv48, i64 %indvars.iv44, i64 %indvars.iv40, i64 %indvars.iv
  %8 = load i8, ptr %7, align 1, !tbaa !31
  %9 = icmp ne i8 %6, %8
  %10 = zext i1 %9 to i32
  %11 = getelementptr inbounds nuw [4 x [8 x [3 x [11 x i8]]]], ptr @VP8CoeffsUpdateProba, i64 0, i64 %indvars.iv48, i64 %indvars.iv44, i64 %indvars.iv40, i64 %indvars.iv
  %12 = load i8, ptr %11, align 1, !tbaa !31
  %13 = zext i8 %12 to i32
  %14 = tail call i32 @VP8PutBit(ptr noundef %0, i32 noundef %10, i32 noundef %13) #6
  %.not32 = icmp eq i32 %14, 0
  br i1 %.not32, label %17, label %15

15:                                               ; preds = %4
  %16 = zext i8 %6 to i32
  tail call void @VP8PutBits(ptr noundef %0, i32 noundef %16, i32 noundef 8) #6
  br label %17

17:                                               ; preds = %15, %4
  %indvars.iv.next = add nuw nsw i64 %indvars.iv, 1
  %exitcond.not = icmp eq i64 %indvars.iv.next, 11
  br i1 %exitcond.not, label %18, label %4, !llvm.loop !39

18:                                               ; preds = %17
  %indvars.iv.next41 = add nuw nsw i64 %indvars.iv40, 1
  %exitcond43.not = icmp eq i64 %indvars.iv.next41, 3
  br i1 %exitcond43.not, label %19, label %.preheader, !llvm.loop !40

19:                                               ; preds = %18
  %indvars.iv.next45 = add nuw nsw i64 %indvars.iv44, 1
  %exitcond47.not = icmp eq i64 %indvars.iv.next45, 8
  br i1 %exitcond47.not, label %20, label %.preheader33, !llvm.loop !41

20:                                               ; preds = %19
  %indvars.iv.next49 = add nuw nsw i64 %indvars.iv48, 1
  %exitcond51.not = icmp eq i64 %indvars.iv.next49, 4
  br i1 %exitcond51.not, label %21, label %.preheader34, !llvm.loop !42

21:                                               ; preds = %20
  %22 = getelementptr inbounds nuw i8, ptr %1, i64 19884
  %23 = load i32, ptr %22, align 4, !tbaa !3
  %24 = tail call i32 @VP8PutBitUniform(ptr noundef %0, i32 noundef %23) #6
  %.not = icmp eq i32 %24, 0
  br i1 %.not, label %29, label %25

25:                                               ; preds = %21
  %26 = getelementptr inbounds nuw i8, ptr %1, i64 3
  %27 = load i8, ptr %26, align 1, !tbaa !43
  %28 = zext i8 %27 to i32
  tail call void @VP8PutBits(ptr noundef %0, i32 noundef %28, i32 noundef 8) #6
  br label %29

29:                                               ; preds = %25, %21
  ret void
}